target datalayout = "e-m:e-p270:32:32-p271:32:32-p272:64:64-i64:64-i128:128-f80:128-n8:16:32:64-S128"
target triple = "x86_64-pc-linux-gnu"

%struct.ma_vec3f = type { float, float, float }
%struct.ma_allocation_callbacks = type { ptr, ptr, ptr, ptr }
%struct.ma_atomic_float = type { float }
%struct.ma_linear_resampler = type { %struct.ma_linear_resampler_config, i32, i32, i32, i32, %union.anon.24, %union.anon.25, %struct.ma_lpf, ptr, i32 }
%struct.ma_linear_resampler_config = type { i32, i32, i32, i32, i32, double }
%union.anon.24 = type { ptr }
%union.anon.25 = type { ptr }
%struct.ma_lpf = type { i32, i32, i32, i32, i32, ptr, ptr, ptr, i32 }
%struct.ma_gainer_config = type { i32, i32 }
%struct.ma_gainer = type { %struct.ma_gainer_config, i32, float, ptr, ptr, ptr, i32 }
%struct.ma_panner = type { i32, i32, i32, float }
%struct.ma_fader_config = type { i32, i32, i32 }
%struct.ma_fader = type { %struct.ma_fader_config, float, float, i64, i64 }
%struct.ma_atomic_vec3f = type { %struct.ma_vec3f, i32 }
%struct.ma_spatializer_listener_config = type { i32, ptr, i32, float, float, float, float, %struct.ma_vec3f }
%struct.ma_spatializer_listener = type { %struct.ma_spatializer_listener_config, %struct.ma_atomic_vec3f, %struct.ma_atomic_vec3f, %struct.ma_atomic_vec3f, i32, i32, ptr }
%struct.ma_spatializer = type { i32, i32, ptr, i32, i32, i32, float, float, float, float, float, float, float, float, float, float, i32, %struct.ma_atomic_vec3f, %struct.ma_atomic_vec3f, %struct.ma_atomic_vec3f, float, float, %struct.ma_gainer, ptr, ptr, i32 }
%struct.ma_node_graph = type { %struct.ma_node_base, %struct.ma_node_base, i16, i32 }
%struct.ma_node_base = type { ptr, ptr, ptr, i16, i16, i16, i16, i32, [2 x i64], i64, i32, i32, ptr, ptr, [2 x %struct.ma_node_input_bus], [2 x %struct.ma_node_output_bus], ptr, i32 }
%struct.ma_node_input_bus = type { %struct.ma_node_output_bus, i32, i32, i8 }
%struct.ma_node_output_bus = type { ptr, i8, i8, i8, i32, i32, i32, i32, float, ptr, ptr, ptr }
%struct.ma_engine = type { %struct.ma_node_graph, ptr, ptr, ptr, i32, i32, [4 x %struct.ma_spatializer_listener], %struct.ma_allocation_callbacks, i8, i8, i32, ptr, i32, i32, i32, i32, ptr, ptr }
%struct.ma_engine_node = type { %struct.ma_node_base, ptr, i32, i32, i32, %struct.ma_fader, %struct.ma_linear_resampler, %struct.ma_spatializer, %struct.ma_panner, %struct.ma_gainer, %struct.ma_atomic_float, float, float, float, i32, i32, i32, %struct.anon.73, i8, ptr }
%struct.anon.73 = type { %struct.ma_atomic_float, %struct.ma_atomic_float, %struct.ma_atomic_uint64, %struct.ma_atomic_uint64 }
%struct.ma_atomic_uint64 = type { i64 }
%struct.ma_sound = type { %struct.ma_engine_node, ptr, i64, i32, ptr, ptr, i8, ptr }

; Function Attrs: nounwind uwtable
define i32 @ma_engine_get_listener_count(ptr noundef %0) #0 {
  %2 = alloca i32, align 4
  %3 = alloca ptr, align 8
  store ptr %0, ptr %3, align 8, !tbaa !1388
  %4 = load ptr, ptr %3, align 8, !tbaa !1388
  %5 = icmp eq ptr %4, null
  br i1 %5, label %6, label %7

6:                                                ; preds = %1
  store i32 0, ptr %2, align 4
  br label %11

7:                                                ; preds = %1
  %8 = load ptr, ptr %3, align 8, !tbaa !1388
  %9 = getelementptr inbounds nuw %struct.ma_engine, ptr %8, i32 0, i32 5
  %10 = load i32, ptr %9, align 4, !tbaa !1420
  store i32 %10, ptr %2, align 4
  br label %11

11:                                               ; preds = %7, %6
  %12 = load i32, ptr %2, align 4
  ret i32 %12
}

; Function Attrs: nounwind uwtable
define ptr @ma_sound_get_engine(ptr noundef %0) #0 {
  %2 = alloca ptr, align 8
  %3 = alloca ptr, align 8
  store ptr %0, ptr %3, align 8, !tbaa !1471
  %4 = load ptr, ptr %3, align 8, !tbaa !1471
  %5 = icmp eq ptr %4, null
  br i1 %5, label %6, label %7

6:                                                ; preds = %1
  store ptr null, ptr %2, align 8
  br label %12

7:                                                ; preds = %1
  %8 = load ptr, ptr %3, align 8, !tbaa !1471
  %9 = getelementptr inbounds nuw %struct.ma_sound, ptr %8, i32 0, i32 0
  %10 = getelementptr inbounds nuw %struct.ma_engine_node, ptr %9, i32 0, i32 1
  %11 = load ptr, ptr %10, align 8, !tbaa !1473
  store ptr %11, ptr %2, align 8
  br label %12

12:                                               ; preds = %7, %6
  %13 = load ptr, ptr %2, align 8
  ret ptr %13
}

; Function Attrs: nounwind uwtable
define void @ma_sound_set_pinned_listener_index(ptr noundef %0, i32 noundef %1) #0 {
  %3 = alloca ptr, align 8
  %4 = alloca i32, align 4
  %5 = alloca i32, align 4
  %6 = alloca i32, align 4
  store ptr %0, ptr %3, align 8, !tbaa !1471
  store i32 %1, ptr %4, align 4, !tbaa !8
  %7 = load ptr, ptr %3, align 8, !tbaa !1471
  %8 = icmp eq ptr %7, null
  br i1 %8, label %15, label %9

9:                                                ; preds = %2
  %10 = load i32, ptr %4, align 4, !tbaa !8
  %11 = load ptr, ptr %3, align 8, !tbaa !1471
  %12 = call ptr @ma_sound_get_engine(ptr noundef %11)
  %13 = call i32 @ma_engine_get_listener_count(ptr noundef %12)
  %14 = icmp uge i32 %10, %13
  br i1 %14, label %15, label %16

15:                                               ; preds = %9, %2
  br label %23

16:                                               ; preds = %9
  %17 = load ptr, ptr %3, align 8, !tbaa !1471
  %18 = getelementptr inbounds nuw %struct.ma_sound, ptr %17, i32 0, i32 0
  %19 = getelementptr inbounds nuw %struct.ma_engine_node, ptr %18, i32 0, i32 16
  %20 = load i32, ptr %4, align 4, !tbaa !8
  store i32 %20, ptr %5, align 4, !tbaa !8
  %21 = load i32, ptr %5, align 4
  %22 = atomicrmw xchg ptr %19, i32 %21 release, align 8
  store i32 %22, ptr %6, align 4
  br label %23

23:                                               ; preds = %16, %15
  ret void
}