; Function Attrs: mustprogress nofree norecurse nounwind willreturn memory(read, argmem: readwrite, inaccessiblemem: none) uwtable
define void @ma_sound_set_pinned_listener_index(ptr noundef captures(address_is_null) %0, i32 noundef %1) local_unnamed_addr #62 {
  %3 = icmp eq ptr %0, null
  br i1 %3, label %ma_engine_get_listener_count.exit.thread, label %ma_sound_get_engine.exit

ma_sound_get_engine.exit:                         ; preds = %2
  %4 = getelementptr inbounds nuw i8, ptr %0, i64 360
  %5 = load ptr, ptr %4, align 8, !tbaa !1813
  %6 = icmp eq ptr %5, null
  br i1 %6, label %ma_engine_get_listener_count.exit.thread, label %ma_engine_get_listener_count.exit

ma_engine_get_listener_count.exit:                ; preds = %ma_sound_get_engine.exit
  %7 = getelementptr inbounds nuw i8, ptr %5, i64 756
  %8 = load i32, ptr %7, align 4, !tbaa !1754
  %.not = icmp ult i32 %1, %8
  br i1 %.not, label %9, label %ma_engine_get_listener_count.exit.thread

9:                                                ; preds = %ma_engine_get_listener_count.exit
  %10 = getelementptr inbounds nuw i8, ptr %0, i64 848
  %11 = atomicrmw xchg ptr %10, i32 %1 release, align 8
  br label %ma_engine_get_listener_count.exit.thread

ma_engine_get_listener_count.exit.thread:         ; preds = %ma_sound_get_engine.exit, %2, %ma_engine_get_listener_count.exit, %9
  ret void
}